; Function Attrs: mustprogress nounwind uwtable
define internal void @"_ZNSt17_Function_handlerIFvvEZN4llvm13DWARFVerifier19verifyDebugInfoFormERKNS1_8DWARFDieERNS1_14DWARFAttributeERSt3mapImSt3setImSt4lessImESaImEESB_SaISt4pairIKmSD_EEESJ_E3$_2E9_M_invokeERKSt9_Any_data"(ptr nocapture noundef nonnull readonly align 8 dereferenceable(16) %0) #0 align 2 {
  %.val = load ptr, ptr %0, align 8
  %2 = load ptr, ptr %.val, align 8
  %3 = load ptr, ptr %2, align 8
  %4 = tail call noundef nonnull align 8 dereferenceable(48) ptr @_ZN4llvm9WithColor5errorERNS_11raw_ostreamENS_9StringRefEb(ptr noundef nonnull align 8 dereferenceable(48) %3, ptr nonnull @.str.145, i64 0, i1 noundef zeroext false) #26
  %5 = getelementptr inbounds nuw i8, ptr %.val, i64 8
  %6 = load ptr, ptr %5, align 8
  %7 = tail call noundef ptr @_ZNKSt7__cxx1112basic_stringIcSt11char_traitsIcESaIcEE4dataEv(ptr noundef nonnull align 8 dereferenceable(32) %6) #26
  %8 = tail call noundef i64 @_ZNKSt7__cxx1112basic_stringIcSt11char_traitsIcESaIcEE6lengthEv(ptr noundef nonnull align 8 dereferenceable(32) %6) #26
  %9 = tail call noundef nonnull align 8 dereferenceable(48) ptr @_ZN4llvm11raw_ostream5writeEPKcm(ptr noundef nonnull align 8 dereferenceable(48) %4, ptr noundef %7, i64 noundef %8) #26
  %10 = getelementptr inbounds nuw i8, ptr %9, i64 24
  %11 = load ptr, ptr %10, align 8
  %12 = getelementptr inbounds nuw i8, ptr %9, i64 32
  %13 = load ptr, ptr %12, align 8
  %14 = ptrtoint ptr %11 to i64
  %15 = ptrtoint ptr %13 to i64
  %16 = sub i64 %14, %15
  %17 = icmp ult i64 %16, 2
  br i1 %17, label %18, label %20

18:                                               ; preds = %1
  %19 = tail call noundef nonnull align 8 dereferenceable(48) ptr @_ZN4llvm11raw_ostream5writeEPKcm(ptr noundef nonnull align 8 dereferenceable(48) %9, ptr noundef nonnull @.str.206, i64 noundef 2) #26
  br label %_ZN4llvm11raw_ostreamlsEPKc.exit.i.i.i

20:                                               ; preds = %1
  store i16 2618, ptr %13, align 1
  %21 = load ptr, ptr %12, align 8
  %22 = getelementptr inbounds i8, ptr %21, i64 2
  store ptr %22, ptr %12, align 8
  br label %_ZN4llvm11raw_ostreamlsEPKc.exit.i.i.i

_ZN4llvm11raw_ostreamlsEPKc.exit.i.i.i:           ; preds = %20, %18
  %23 = getelementptr inbounds nuw i8, ptr %.val, i64 16
  %24 = load ptr, ptr %23, align 8
  %25 = tail call noundef nonnull align 8 dereferenceable(48) ptr @_ZNK4llvm13DWARFVerifier4dumpERKNS_8DWARFDieEj(ptr noundef nonnull align 8 dereferenceable(242) %2, ptr noundef nonnull align 8 dereferenceable(16) %24, i32 noundef 0)
  %26 = getelementptr inbounds nuw i8, ptr %25, i64 32
  %27 = load ptr, ptr %26, align 8
  %28 = getelementptr inbounds nuw i8, ptr %25, i64 24
  %29 = load ptr, ptr %28, align 8
  %.not.i.i.i.i = icmp ult ptr %27, %29
  br i1 %.not.i.i.i.i, label %32, label %30

30:                                               ; preds = %_ZN4llvm11raw_ostreamlsEPKc.exit.i.i.i
  %31 = tail call noundef nonnull align 8 dereferenceable(48) ptr @_ZN4llvm11raw_ostream5writeEh(ptr noundef nonnull align 8 dereferenceable(48) %25, i8 noundef zeroext 10) #26
  br label %"_ZSt10__invoke_rIvRZN4llvm13DWARFVerifier19verifyDebugInfoFormERKNS0_8DWARFDieERNS0_14DWARFAttributeERSt3mapImSt3setImSt4lessImESaImEESA_SaISt4pairIKmSC_EEESI_E3$_2JEENSt9enable_ifIX16is_invocable_r_vIT_T0_DpT1_EESM_E4typeEOSN_DpOSO_.exit"

32:                                               ; preds = %_ZN4llvm11raw_ostreamlsEPKc.exit.i.i.i
  %33 = getelementptr inbounds i8, ptr %27, i64 1
  store ptr %33, ptr %26, align 8
  store i8 10, ptr %27, align 1
  br label %"_ZSt10__invoke_rIvRZN4llvm13DWARFVerifier19verifyDebugInfoFormERKNS0_8DWARFDieERNS0_14DWARFAttributeERSt3mapImSt3setImSt4lessImESaImEESA_SaISt4pairIKmSC_EEESI_E3$_2JEENSt9enable_ifIX16is_invocable_r_vIT_T0_DpT1_EESM_E4typeEOSN_DpOSO_.exit"

"_ZSt10__invoke_rIvRZN4llvm13DWARFVerifier19verifyDebugInfoFormERKNS0_8DWARFDieERNS0_14DWARFAttributeERSt3mapImSt3setImSt4lessImESaImEESA_SaISt4pairIKmSC_EEESI_E3$_2JEENSt9enable_ifIX16is_invocable_r_vIT_T0_DpT1_EESM_E4typeEOSN_DpOSO_.exit": ; preds = %30, %32
  ret void
}